target datalayout = "e-m:e-p270:32:32-p271:32:32-p272:64:64-i64:64-i128:128-f80:128-n8:16:32:64-S128"
target triple = "x86_64-pc-linux-gnu"

%struct.AVTXContext = type { i32, i32, ptr, ptr, ptr, ptr, [4 x ptr], i32, [4 x ptr], ptr, i32, i64, i32, float, double, ptr }

; Function Attrs: nounwind uwtable
define internal void @ff_tx_dctII_int32_c(ptr noundef %0, ptr noundef %1, ptr noundef %2, i64 noundef %3) #4 {
  %5 = alloca ptr, align 8
  %6 = alloca ptr, align 8
  %7 = alloca ptr, align 8
  %8 = alloca i64, align 8
  %9 = alloca ptr, align 8
  %10 = alloca ptr, align 8
  %11 = alloca i32, align 4
  %12 = alloca i32, align 4
  %13 = alloca ptr, align 8
  %14 = alloca i32, align 4
  %15 = alloca i64, align 8
  %16 = alloca i64, align 8
  %17 = alloca i32, align 4
  %18 = alloca i32, align 4
  %19 = alloca i32, align 4
  %20 = alloca i32, align 4
  %21 = alloca i32, align 4
  %22 = alloca i32, align 4
  %23 = alloca i64, align 8
  store ptr %0, ptr %5, align 8, !tbaa !17
  store ptr %1, ptr %6, align 8, !tbaa !8
  store ptr %2, ptr %7, align 8, !tbaa !8
  store i64 %3, ptr %8, align 8, !tbaa !30
  call void @llvm.lifetime.start.p0(i64 8, ptr %9) #10
  %24 = load ptr, ptr %6, align 8, !tbaa !8
  store ptr %24, ptr %9, align 8, !tbaa !19
  call void @llvm.lifetime.start.p0(i64 8, ptr %10) #10
  %25 = load ptr, ptr %7, align 8, !tbaa !8
  store ptr %25, ptr %10, align 8, !tbaa !19
  call void @llvm.lifetime.start.p0(i64 4, ptr %11) #10
  %26 = load ptr, ptr %5, align 8, !tbaa !17
  %27 = getelementptr inbounds nuw %struct.AVTXContext, ptr %26, i32 0, i32 0
  %28 = load i32, ptr %27, align 8, !tbaa !21
  store i32 %28, ptr %11, align 4, !tbaa !4
  call void @llvm.lifetime.start.p0(i64 4, ptr %12) #10
  %29 = load i32, ptr %11, align 4, !tbaa !4
  %30 = ashr i32 %29, 1
  store i32 %30, ptr %12, align 4, !tbaa !4
  call void @llvm.lifetime.start.p0(i64 8, ptr %13) #10
  %31 = load ptr, ptr %5, align 8, !tbaa !17
  %32 = getelementptr inbounds nuw %struct.AVTXContext, ptr %31, i32 0, i32 3
  %33 = load ptr, ptr %32, align 8, !tbaa !31
  store ptr %33, ptr %13, align 8, !tbaa !19
  call void @llvm.lifetime.start.p0(i64 4, ptr %14) #10
  call void @llvm.lifetime.start.p0(i64 8, ptr %15) #10
  call void @llvm.lifetime.start.p0(i64 8, ptr %16) #10
  call void @llvm.lifetime.start.p0(i64 4, ptr %17) #10
  store i32 0, ptr %17, align 4, !tbaa !4
  br label %34

34:                                               ; preds = %96, %4
  %35 = load i32, ptr %17, align 4, !tbaa !4
  %36 = load i32, ptr %12, align 4, !tbaa !4
  %37 = icmp slt i32 %35, %36
  br i1 %37, label %39, label %38

38:                                               ; preds = %34
  call void @llvm.lifetime.end.p0(i64 4, ptr %17) #10
  br label %99

39:                                               ; preds = %34
  call void @llvm.lifetime.start.p0(i64 4, ptr %18) #10
  %40 = load ptr, ptr %10, align 8, !tbaa !19
  %41 = load i32, ptr %17, align 4, !tbaa !4
  %42 = sext i32 %41 to i64
  %43 = getelementptr inbounds i32, ptr %40, i64 %42
  %44 = load i32, ptr %43, align 4, !tbaa !4
  store i32 %44, ptr %18, align 4, !tbaa !4
  call void @llvm.lifetime.start.p0(i64 4, ptr %19) #10
  %45 = load ptr, ptr %10, align 8, !tbaa !19
  %46 = load i32, ptr %11, align 4, !tbaa !4
  %47 = load i32, ptr %17, align 4, !tbaa !4
  %48 = sub nsw i32 %46, %47
  %49 = sub nsw i32 %48, 1
  %50 = sext i32 %49 to i64
  %51 = getelementptr inbounds i32, ptr %45, i64 %50
  %52 = load i32, ptr %51, align 4, !tbaa !4
  store i32 %52, ptr %19, align 4, !tbaa !4
  call void @llvm.lifetime.start.p0(i64 4, ptr %20) #10
  %53 = load ptr, ptr %13, align 8, !tbaa !19
  %54 = load i32, ptr %11, align 4, !tbaa !4
  %55 = load i32, ptr %17, align 4, !tbaa !4
  %56 = add nsw i32 %54, %55
  %57 = sext i32 %56 to i64
  %58 = getelementptr inbounds i32, ptr %53, i64 %57
  %59 = load i32, ptr %58, align 4, !tbaa !4
  store i32 %59, ptr %20, align 4, !tbaa !4
  %60 = load i32, ptr %18, align 4, !tbaa !4
  %61 = load i32, ptr %19, align 4, !tbaa !4
  %62 = add nsw i32 %60, %61
  %63 = sext i32 %62 to i64
  store i64 %63, ptr %15, align 8, !tbaa !30
  %64 = load i32, ptr %18, align 4, !tbaa !4
  %65 = load i32, ptr %19, align 4, !tbaa !4
  %66 = sub nsw i32 %64, %65
  %67 = sext i32 %66 to i64
  store i64 %67, ptr %16, align 8, !tbaa !30
  %68 = load i64, ptr %15, align 8, !tbaa !30
  %69 = ashr i64 %68, 1
  store i64 %69, ptr %15, align 8, !tbaa !30
  %70 = load i32, ptr %20, align 4, !tbaa !4
  %71 = sext i32 %70 to i64
  %72 = load i64, ptr %16, align 8, !tbaa !30
  %73 = mul nsw i64 %72, %71
  store i64 %73, ptr %16, align 8, !tbaa !30
  %74 = load i64, ptr %16, align 8, !tbaa !30
  %75 = add nsw i64 %74, 1073741824
  %76 = ashr i64 %75, 31
  store i64 %76, ptr %16, align 8, !tbaa !30
  %77 = load i64, ptr %15, align 8, !tbaa !30
  %78 = load i64, ptr %16, align 8, !tbaa !30
  %79 = add nsw i64 %77, %78
  %80 = trunc i64 %79 to i32
  %81 = load ptr, ptr %10, align 8, !tbaa !19
  %82 = load i32, ptr %17, align 4, !tbaa !4
  %83 = sext i32 %82 to i64
  %84 = getelementptr inbounds i32, ptr %81, i64 %83
  store i32 %80, ptr %84, align 4, !tbaa !4
  %85 = load i64, ptr %15, align 8, !tbaa !30
  %86 = load i64, ptr %16, align 8, !tbaa !30
  %87 = sub nsw i64 %85, %86
  %88 = trunc i64 %87 to i32
  %89 = load ptr, ptr %10, align 8, !tbaa !19
  %90 = load i32, ptr %11, align 4, !tbaa !4
  %91 = load i32, ptr %17, align 4, !tbaa !4
  %92 = sub nsw i32 %90, %91
  %93 = sub nsw i32 %92, 1
  %94 = sext i32 %93 to i64
  %95 = getelementptr inbounds i32, ptr %89, i64 %94
  store i32 %88, ptr %95, align 4, !tbaa !4
  call void @llvm.lifetime.end.p0(i64 4, ptr %20) #10
  call void @llvm.lifetime.end.p0(i64 4, ptr %19) #10
  call void @llvm.lifetime.end.p0(i64 4, ptr %18) #10
  br label %96

96:                                               ; preds = %39
  %97 = load i32, ptr %17, align 4, !tbaa !4
  %98 = add nsw i32 %97, 1
  store i32 %98, ptr %17, align 4, !tbaa !4
  br label %34, !llvm.loop !158

99:                                               ; preds = %38
  %100 = load ptr, ptr %5, align 8, !tbaa !17
  %101 = getelementptr inbounds nuw %struct.AVTXContext, ptr %100, i32 0, i32 6
  %102 = getelementptr inbounds [4 x ptr], ptr %101, i64 0, i64 0
  %103 = load ptr, ptr %102, align 8, !tbaa !8
  %104 = load ptr, ptr %5, align 8, !tbaa !17
  %105 = getelementptr inbounds nuw %struct.AVTXContext, ptr %104, i32 0, i32 5
  %106 = load ptr, ptr %105, align 8, !tbaa !65
  %107 = getelementptr inbounds %struct.AVTXContext, ptr %106, i64 0
  %108 = load ptr, ptr %9, align 8, !tbaa !19
  %109 = load ptr, ptr %10, align 8, !tbaa !19
  call void %103(ptr noundef %107, ptr noundef %108, ptr noundef %109, i64 noundef 8)
  %110 = load ptr, ptr %9, align 8, !tbaa !19
  %111 = load i32, ptr %11, align 4, !tbaa !4
  %112 = sext i32 %111 to i64
  %113 = getelementptr inbounds i32, ptr %110, i64 %112
  %114 = load i32, ptr %113, align 4, !tbaa !4
  store i32 %114, ptr %14, align 4, !tbaa !4
  call void @llvm.lifetime.start.p0(i64 4, ptr %21) #10
  %115 = load i32, ptr %11, align 4, !tbaa !4
  %116 = sub nsw i32 %115, 2
  store i32 %116, ptr %21, align 4, !tbaa !4
  br label %117

117:                                              ; preds = %210, %99
  %118 = load i32, ptr %21, align 4, !tbaa !4
  %119 = icmp sgt i32 %118, 0
  br i1 %119, label %121, label %120

120:                                              ; preds = %117
  call void @llvm.lifetime.end.p0(i64 4, ptr %21) #10
  br label %213

121:                                              ; preds = %117
  call void @llvm.lifetime.start.p0(i64 4, ptr %22) #10
  br label %122

122:                                              ; preds = %121
  call void @llvm.lifetime.start.p0(i64 8, ptr %23) #10
  %123 = load ptr, ptr %9, align 8, !tbaa !19
  %124 = load i32, ptr %21, align 4, !tbaa !4
  %125 = add nsw i32 %124, 0
  %126 = sext i32 %125 to i64
  %127 = getelementptr inbounds i32, ptr %123, i64 %126
  %128 = load i32, ptr %127, align 4, !tbaa !4
  %129 = sext i32 %128 to i64
  %130 = load ptr, ptr %13, align 8, !tbaa !19
  %131 = load i32, ptr %11, align 4, !tbaa !4
  %132 = load i32, ptr %21, align 4, !tbaa !4
  %133 = sub nsw i32 %131, %132
  %134 = sext i32 %133 to i64
  %135 = getelementptr inbounds i32, ptr %130, i64 %134
  %136 = load i32, ptr %135, align 4, !tbaa !4
  %137 = sext i32 %136 to i64
  %138 = mul nsw i64 %129, %137
  store i64 %138, ptr %23, align 8, !tbaa !30
  %139 = load ptr, ptr %9, align 8, !tbaa !19
  %140 = load i32, ptr %21, align 4, !tbaa !4
  %141 = add nsw i32 %140, 1
  %142 = sext i32 %141 to i64
  %143 = getelementptr inbounds i32, ptr %139, i64 %142
  %144 = load i32, ptr %143, align 4, !tbaa !4
  %145 = sext i32 %144 to i64
  %146 = load ptr, ptr %13, align 8, !tbaa !19
  %147 = load i32, ptr %21, align 4, !tbaa !4
  %148 = sext i32 %147 to i64
  %149 = getelementptr inbounds i32, ptr %146, i64 %148
  %150 = load i32, ptr %149, align 4, !tbaa !4
  %151 = sext i32 %150 to i64
  %152 = mul nsw i64 %145, %151
  %153 = load i64, ptr %23, align 8, !tbaa !30
  %154 = sub nsw i64 %153, %152
  store i64 %154, ptr %23, align 8, !tbaa !30
  %155 = load i64, ptr %23, align 8, !tbaa !30
  %156 = add nsw i64 %155, 1073741824
  %157 = ashr i64 %156, 31
  %158 = trunc i64 %157 to i32
  store i32 %158, ptr %22, align 4, !tbaa !4
  %159 = load ptr, ptr %9, align 8, !tbaa !19
  %160 = load i32, ptr %21, align 4, !tbaa !4
  %161 = add nsw i32 %160, 1
  %162 = sext i32 %161 to i64
  %163 = getelementptr inbounds i32, ptr %159, i64 %162
  %164 = load i32, ptr %163, align 4, !tbaa !4
  %165 = sext i32 %164 to i64
  %166 = load ptr, ptr %13, align 8, !tbaa !19
  %167 = load i32, ptr %11, align 4, !tbaa !4
  %168 = load i32, ptr %21, align 4, !tbaa !4
  %169 = sub nsw i32 %167, %168
  %170 = sext i32 %169 to i64
  %171 = getelementptr inbounds i32, ptr %166, i64 %170
  %172 = load i32, ptr %171, align 4, !tbaa !4
  %173 = sext i32 %172 to i64
  %174 = mul nsw i64 %165, %173
  store i64 %174, ptr %23, align 8, !tbaa !30
  %175 = load ptr, ptr %9, align 8, !tbaa !19
  %176 = load i32, ptr %21, align 4, !tbaa !4
  %177 = add nsw i32 %176, 0
  %178 = sext i32 %177 to i64
  %179 = getelementptr inbounds i32, ptr %175, i64 %178
  %180 = load i32, ptr %179, align 4, !tbaa !4
  %181 = sext i32 %180 to i64
  %182 = load ptr, ptr %13, align 8, !tbaa !19
  %183 = load i32, ptr %21, align 4, !tbaa !4
  %184 = sext i32 %183 to i64
  %185 = getelementptr inbounds i32, ptr %182, i64 %184
  %186 = load i32, ptr %185, align 4, !tbaa !4
  %187 = sext i32 %186 to i64
  %188 = mul nsw i64 %181, %187
  %189 = load i64, ptr %23, align 8, !tbaa !30
  %190 = add nsw i64 %189, %188
  store i64 %190, ptr %23, align 8, !tbaa !30
  %191 = load i64, ptr %23, align 8, !tbaa !30
  %192 = add nsw i64 %191, 1073741824
  %193 = ashr i64 %192, 31
  %194 = trunc i64 %193 to i32
  %195 = load ptr, ptr %9, align 8, !tbaa !19
  %196 = load i32, ptr %21, align 4, !tbaa !4
  %197 = sext i32 %196 to i64
  %198 = getelementptr inbounds i32, ptr %195, i64 %197
  store i32 %194, ptr %198, align 4, !tbaa !4
  call void @llvm.lifetime.end.p0(i64 8, ptr %23) #10
  br label %199

199:                                              ; preds = %122
  br label %200

200:                                              ; preds = %199
  %201 = load i32, ptr %14, align 4, !tbaa !4
  %202 = load ptr, ptr %9, align 8, !tbaa !19
  %203 = load i32, ptr %21, align 4, !tbaa !4
  %204 = add nsw i32 %203, 1
  %205 = sext i32 %204 to i64
  %206 = getelementptr inbounds i32, ptr %202, i64 %205
  store i32 %201, ptr %206, align 4, !tbaa !4
  %207 = load i32, ptr %22, align 4, !tbaa !4
  %208 = load i32, ptr %14, align 4, !tbaa !4
  %209 = add nsw i32 %208, %207
  store i32 %209, ptr %14, align 4, !tbaa !4
  call void @llvm.lifetime.end.p0(i64 4, ptr %22) #10
  br label %210

210:                                              ; preds = %200
  %211 = load i32, ptr %21, align 4, !tbaa !4
  %212 = sub nsw i32 %211, 2
  store i32 %212, ptr %21, align 4, !tbaa !4
  br label %117, !llvm.loop !159

213:                                              ; preds = %120
  %214 = load ptr, ptr %13, align 8, !tbaa !19
  %215 = getelementptr inbounds i32, ptr %214, i64 0
  %216 = load i32, ptr %215, align 4, !tbaa !4
  %217 = sext i32 %216 to i64
  %218 = load ptr, ptr %9, align 8, !tbaa !19
  %219 = getelementptr inbounds i32, ptr %218, i64 0
  %220 = load i32, ptr %219, align 4, !tbaa !4
  %221 = sext i32 %220 to i64
  %222 = mul nsw i64 %217, %221
  store i64 %222, ptr %15, align 8, !tbaa !30
  %223 = load i64, ptr %15, align 8, !tbaa !30
  %224 = add nsw i64 %223, 1073741824
  %225 = ashr i64 %224, 31
  %226 = trunc i64 %225 to i32
  %227 = load ptr, ptr %9, align 8, !tbaa !19
  %228 = getelementptr inbounds i32, ptr %227, i64 0
  store i32 %226, ptr %228, align 4, !tbaa !4
  %229 = load i32, ptr %14, align 4, !tbaa !4
  %230 = load ptr, ptr %9, align 8, !tbaa !19
  %231 = getelementptr inbounds i32, ptr %230, i64 1
  store i32 %229, ptr %231, align 4, !tbaa !4
  call void @llvm.lifetime.end.p0(i64 8, ptr %16) #10
  call void @llvm.lifetime.end.p0(i64 8, ptr %15) #10
  call void @llvm.lifetime.end.p0(i64 4, ptr %14) #10
  call void @llvm.lifetime.end.p0(i64 8, ptr %13) #10
  call void @llvm.lifetime.end.p0(i64 4, ptr %12) #10
  call void @llvm.lifetime.end.p0(i64 4, ptr %11) #10
  call void @llvm.lifetime.end.p0(i64 8, ptr %10) #10
  call void @llvm.lifetime.end.p0(i64 8, ptr %9) #10
  ret void
}