; Function Attrs: nounwind uwtable
define internal void @ff_tx_dctII_int32_c(ptr noundef readonly captures(none) %0, ptr noundef %1, ptr noundef %2, i64 %3) #3 {
  %5 = load i32, ptr %0, align 8, !tbaa !16
  %6 = ashr i32 %5, 1
  %7 = getelementptr inbounds nuw i8, ptr %0, i64 16
  %8 = load ptr, ptr %7, align 8, !tbaa !26
  %9 = icmp sgt i32 %6, 0
  br i1 %9, label %.lr.ph.preheader, label %.._crit_edge_crit_edge

.._crit_edge_crit_edge:                           ; preds = %4
  %.pre = sext i32 %5 to i64
  br label %._crit_edge

.lr.ph.preheader:                                 ; preds = %4
  %10 = zext nneg i32 %5 to i64
  %wide.trip.count = zext nneg i32 %6 to i64
  %invariant.gep = getelementptr i32, ptr %8, i64 %10
  br label %.lr.ph

._crit_edge:                                      ; preds = %.lr.ph, %.._crit_edge_crit_edge
  %.pre-phi = phi i64 [ %.pre, %.._crit_edge_crit_edge ], [ %10, %.lr.ph ]
  %11 = getelementptr inbounds nuw i8, ptr %0, i64 40
  %12 = load ptr, ptr %11, align 8, !tbaa !4
  %13 = getelementptr inbounds nuw i8, ptr %0, i64 32
  %14 = load ptr, ptr %13, align 8, !tbaa !55
  tail call void %12(ptr noundef %14, ptr noundef %1, ptr noundef %2, i64 noundef 8) #16
  %15 = getelementptr inbounds i32, ptr %1, i64 %.pre-phi
  %16 = load i32, ptr %15, align 4, !tbaa !10
  %17 = icmp sgt i32 %5, 2
  br i1 %17, label %.lr.ph82, label %._crit_edge83

.lr.ph:                                           ; preds = %.lr.ph.preheader, %.lr.ph
  %indvars.iv = phi i64 [ 0, %.lr.ph.preheader ], [ %indvars.iv.next, %.lr.ph ]
  %18 = getelementptr inbounds nuw i32, ptr %2, i64 %indvars.iv
  %19 = load i32, ptr %18, align 4, !tbaa !10
  %20 = trunc i64 %indvars.iv to i32
  %21 = xor i32 %20, -1
  %22 = add i32 %5, %21
  %23 = sext i32 %22 to i64
  %24 = getelementptr inbounds i32, ptr %2, i64 %23
  %25 = load i32, ptr %24, align 4, !tbaa !10
  %gep = getelementptr i32, ptr %invariant.gep, i64 %indvars.iv
  %26 = load i32, ptr %gep, align 4, !tbaa !10
  %27 = add nsw i32 %25, %19
  %28 = sub nsw i32 %19, %25
  %29 = sext i32 %28 to i64
  %30 = ashr i32 %27, 1
  %31 = sext i32 %26 to i64
  %32 = mul nsw i64 %29, %31
  %33 = add nsw i64 %32, 1073741824
  %34 = lshr i64 %33, 31
  %35 = trunc i64 %34 to i32
  %36 = add i32 %30, %35
  store i32 %36, ptr %18, align 4, !tbaa !10
  %37 = sub i32 %30, %35
  store i32 %37, ptr %24, align 4, !tbaa !10
  %indvars.iv.next = add nuw nsw i64 %indvars.iv, 1
  %exitcond.not = icmp eq i64 %indvars.iv.next, %wide.trip.count
  br i1 %exitcond.not, label %._crit_edge, label %.lr.ph, !llvm.loop !149

._crit_edge83:                                    ; preds = %.lr.ph82, %._crit_edge
  %.0.lcssa = phi i32 [ %16, %._crit_edge ], [ %72, %.lr.ph82 ]
  %38 = load i32, ptr %8, align 4, !tbaa !10
  %39 = sext i32 %38 to i64
  %40 = load i32, ptr %1, align 4, !tbaa !10
  %41 = sext i32 %40 to i64
  %42 = mul nsw i64 %41, %39
  %43 = add nsw i64 %42, 1073741824
  %44 = lshr i64 %43, 31
  %45 = trunc i64 %44 to i32
  store i32 %45, ptr %1, align 4, !tbaa !10
  %46 = getelementptr inbounds nuw i8, ptr %1, i64 4
  store i32 %.0.lcssa, ptr %46, align 4, !tbaa !10
  ret void

.lr.ph82:                                         ; preds = %._crit_edge, %.lr.ph82
  %indvars.iv85 = phi i64 [ %indvars.iv.next86, %.lr.ph82 ], [ %.pre-phi, %._crit_edge ]
  %.080 = phi i32 [ %72, %.lr.ph82 ], [ %16, %._crit_edge ]
  %indvars.iv.next86 = add nsw i64 %indvars.iv85, -2
  %47 = getelementptr inbounds nuw i32, ptr %1, i64 %indvars.iv.next86
  %48 = load i32, ptr %47, align 4, !tbaa !10
  %49 = sext i32 %48 to i64
  %50 = sub nsw i64 %.pre-phi, %indvars.iv.next86
  %51 = getelementptr inbounds i32, ptr %8, i64 %50
  %52 = load i32, ptr %51, align 4, !tbaa !10
  %53 = sext i32 %52 to i64
  %54 = mul nsw i64 %53, %49
  %55 = getelementptr inbounds nuw i8, ptr %47, i64 4
  %56 = load i32, ptr %55, align 4, !tbaa !10
  %57 = sext i32 %56 to i64
  %58 = getelementptr inbounds nuw i32, ptr %8, i64 %indvars.iv.next86
  %59 = load i32, ptr %58, align 4, !tbaa !10
  %60 = sext i32 %59 to i64
  %61 = mul nsw i64 %60, %57
  %62 = add nsw i64 %54, 1073741824
  %63 = sub nsw i64 %62, %61
  %64 = lshr i64 %63, 31
  %65 = trunc i64 %64 to i32
  %66 = mul nsw i64 %57, %53
  %67 = mul nsw i64 %60, %49
  %68 = add nsw i64 %66, 1073741824
  %69 = add i64 %68, %67
  %70 = lshr i64 %69, 31
  %71 = trunc i64 %70 to i32
  store i32 %71, ptr %47, align 4, !tbaa !10
  store i32 %.080, ptr %55, align 4, !tbaa !10
  %72 = add nsw i32 %.080, %65
  %73 = icmp sgt i64 %indvars.iv85, 4
  br i1 %73, label %.lr.ph82, label %._crit_edge83, !llvm.loop !150
}